target datalayout = "e-m:e-p270:32:32-p271:32:32-p272:64:64-i64:64-i128:128-f80:128-n8:16:32:64-S128"
target triple = "x86_64-pc-linux-gnu"

%struct.hb_font_funcs_t = type { %struct.hb_object_header_t, ptr, ptr, %"union.hb_font_funcs_t::get_t" }
%struct.hb_object_header_t = type { %struct.hb_reference_count_t, %struct.hb_atomic_int_t, %struct.hb_atomic_ptr_t }
%struct.hb_reference_count_t = type { %struct.hb_atomic_int_t }
%struct.hb_atomic_int_t = type { i32 }
%struct.hb_atomic_ptr_t = type { ptr }
%"union.hb_font_funcs_t::get_t" = type { %"struct.hb_font_funcs_t::get_t::get_funcs_t" }
%"struct.hb_font_funcs_t::get_t::get_funcs_t" = type { ptr, ptr, ptr, ptr, ptr, ptr, ptr, ptr, ptr, ptr, ptr, ptr, ptr, ptr, ptr, ptr, ptr, ptr, ptr }
%struct.hb_atomic_ptr_t.1 = type { ptr }
%struct.hb_atomic_ptr_t.5 = type { ptr }
%struct.hb_font_t = type { %struct.hb_object_header_t, i32, i32, ptr, ptr, i32, i32, float, float, i8, i32, i32, float, float, float, float, i64, i64, i32, i32, float, i32, i32, ptr, ptr, ptr, ptr, ptr, %struct.hb_shaper_object_dataset_t }
%struct.hb_shaper_object_dataset_t = type { ptr, %struct.hb_shaper_lazy_loader_t, %struct.hb_shaper_lazy_loader_t.2 }
%struct.hb_shaper_lazy_loader_t = type { %struct.hb_lazy_loader_t }
%struct.hb_lazy_loader_t = type { %struct.hb_atomic_ptr_t.1 }
%struct.hb_shaper_lazy_loader_t.2 = type { %struct.hb_lazy_loader_t.3 }
%struct.hb_lazy_loader_t.3 = type { %struct.hb_atomic_ptr_t.5 }
%struct.anon.0 = type { ptr, ptr, ptr, ptr, ptr, ptr, ptr, ptr, ptr, ptr, ptr, ptr, ptr, ptr, ptr, ptr, ptr, ptr, ptr }

; Function Attrs: mustprogress uwtable
define linkonce_odr hidden noundef i32 @_ZN9hb_font_t19get_glyph_v_kerningEjj(ptr noundef nonnull align 8 dereferenceable(192) %0, i32 noundef %1, i32 noundef %2) #0 comdat align 2 {
  %4 = alloca ptr, align 8
  %5 = alloca i32, align 4
  %6 = alloca i32, align 4
  store ptr %0, ptr %4, align 8
  store i32 %1, ptr %5, align 4
  store i32 %2, ptr %6, align 4
  %7 = load ptr, ptr %4, align 8
  %8 = getelementptr inbounds %struct.hb_font_t, ptr %7, i32 0, i32 25
  %9 = load ptr, ptr %8, align 8
  %10 = getelementptr inbounds %struct.hb_font_funcs_t, ptr %9, i32 0, i32 3
  %11 = getelementptr inbounds %"struct.hb_font_funcs_t::get_t::get_funcs_t", ptr %10, i32 0, i32 12
  %12 = load ptr, ptr %11, align 8
  %13 = getelementptr inbounds %struct.hb_font_t, ptr %7, i32 0, i32 26
  %14 = load ptr, ptr %13, align 8
  %15 = load i32, ptr %5, align 4
  %16 = load i32, ptr %6, align 4
  %17 = getelementptr inbounds %struct.hb_font_t, ptr %7, i32 0, i32 25
  %18 = load ptr, ptr %17, align 8
  %19 = getelementptr inbounds %struct.hb_font_funcs_t, ptr %18, i32 0, i32 1
  %20 = load ptr, ptr %19, align 8
  %21 = icmp ne ptr %20, null
  br i1 %21, label %23, label %22

22:                                               ; preds = %3
  br label %30

23:                                               ; preds = %3
  %24 = getelementptr inbounds %struct.hb_font_t, ptr %7, i32 0, i32 25
  %25 = load ptr, ptr %24, align 8
  %26 = getelementptr inbounds %struct.hb_font_funcs_t, ptr %25, i32 0, i32 1
  %27 = load ptr, ptr %26, align 8
  %28 = getelementptr inbounds %struct.anon.0, ptr %27, i32 0, i32 12
  %29 = load ptr, ptr %28, align 8
  br label %30

30:                                               ; preds = %23, %22
  %31 = phi ptr [ null, %22 ], [ %29, %23 ]
  %32 = call noundef i32 %12(ptr noundef %7, ptr noundef %14, i32 noundef %15, i32 noundef %16, ptr noundef %31)
  ret i32 %32
}

; Function Attrs: mustprogress uwtable
define hidden i32 @hb_font_get_glyph_v_kerning(ptr noundef %0, i32 noundef %1, i32 noundef %2) #0 {
  %4 = alloca ptr, align 8
  %5 = alloca i32, align 4
  %6 = alloca i32, align 4
  store ptr %0, ptr %4, align 8
  store i32 %1, ptr %5, align 4
  store i32 %2, ptr %6, align 4
  %7 = load ptr, ptr %4, align 8
  %8 = load i32, ptr %5, align 4
  %9 = load i32, ptr %6, align 4
  %10 = call noundef i32 @_ZN9hb_font_t19get_glyph_v_kerningEjj(ptr noundef nonnull align 8 dereferenceable(192) %7, i32 noundef %8, i32 noundef %9)
  ret i32 %10
}