; Function Attrs: mustprogress uwtable
define hidden noundef i32 @hb_font_get_glyph_v_kerning(ptr noundef %0, i32 noundef %1, i32 noundef %2) local_unnamed_addr #1 {
  %4 = getelementptr inbounds i8, ptr %0, i64 144
  %5 = load ptr, ptr %4, align 8
  %6 = getelementptr inbounds i8, ptr %5, i64 128
  %7 = load ptr, ptr %6, align 8
  %8 = getelementptr inbounds i8, ptr %0, i64 152
  %9 = load ptr, ptr %8, align 8
  %10 = getelementptr inbounds i8, ptr %5, i64 16
  %11 = load ptr, ptr %10, align 8
  %.not.i = icmp eq ptr %11, null
  br i1 %.not.i, label %_ZN9hb_font_t19get_glyph_v_kerningEjj.exit, label %12

12:                                               ; preds = %3
  %13 = getelementptr inbounds i8, ptr %11, i64 96
  %14 = load ptr, ptr %13, align 8
  br label %_ZN9hb_font_t19get_glyph_v_kerningEjj.exit

_ZN9hb_font_t19get_glyph_v_kerningEjj.exit:       ; preds = %3, %12
  %15 = phi ptr [ %14, %12 ], [ null, %3 ]
  %16 = tail call noundef i32 %7(ptr noundef nonnull %0, ptr noundef %9, i32 noundef %1, i32 noundef %2, ptr noundef %15)
  ret i32 %16
}